target datalayout = "e-m:e-p270:32:32-p271:32:32-p272:64:64-i64:64-i128:128-f80:128-n8:16:32:64-S128"
target triple = "x86_64-pc-linux-gnu"

%struct.Part_One_t_ = type { i32, i32, i32, [0 x i32] }

; Function Attrs: inlinehint nounwind uwtable
define internal ptr @Part_ManFetchEntry(ptr noundef %0, i32 noundef %1, i32 noundef %2) #4 {
  %4 = alloca ptr, align 8
  %5 = alloca i32, align 4
  %6 = alloca i32, align 4
  %7 = alloca ptr, align 8
  store ptr %0, ptr %4, align 8, !tbaa !7
  store i32 %1, ptr %5, align 4, !tbaa !3
  store i32 %2, ptr %6, align 4, !tbaa !3
  call void @llvm.lifetime.start.p0(i64 8, ptr %7) #11
  %8 = load ptr, ptr %4, align 8, !tbaa !7
  %9 = load i32, ptr %5, align 4, !tbaa !3
  %10 = sext i32 %9 to i64
  %11 = mul i64 4, %10
  %12 = add i64 12, %11
  %13 = trunc i64 %12 to i32
  %14 = call ptr @Part_ManFetch(ptr noundef %8, i32 noundef %13)
  store ptr %14, ptr %7, align 8, !tbaa !29
  %15 = load i32, ptr %6, align 4, !tbaa !3
  %16 = load ptr, ptr %7, align 8, !tbaa !29
  %17 = getelementptr inbounds nuw %struct.Part_One_t_, ptr %16, i32 0, i32 0
  store i32 %15, ptr %17, align 4, !tbaa !38
  %18 = load ptr, ptr %7, align 8, !tbaa !29
  %19 = getelementptr inbounds nuw %struct.Part_One_t_, ptr %18, i32 0, i32 1
  store i32 0, ptr %19, align 4, !tbaa !31
  %20 = load i32, ptr %5, align 4, !tbaa !3
  %21 = load ptr, ptr %7, align 8, !tbaa !29
  %22 = getelementptr inbounds nuw %struct.Part_One_t_, ptr %21, i32 0, i32 2
  store i32 %20, ptr %22, align 4, !tbaa !39
  %23 = load ptr, ptr %7, align 8, !tbaa !29
  call void @llvm.lifetime.end.p0(i64 8, ptr %7) #11
  ret ptr %23
}

; Function Attrs: nounwind uwtable
define ptr @Part_ManMergeEntry(ptr noundef %0, ptr noundef %1, ptr noundef %2, i32 noundef %3) #0 {
  %5 = alloca ptr, align 8
  %6 = alloca ptr, align 8
  %7 = alloca ptr, align 8
  %8 = alloca i32, align 4
  %9 = alloca ptr, align 8
  %10 = alloca ptr, align 8
  %11 = alloca ptr, align 8
  %12 = alloca ptr, align 8
  %13 = alloca ptr, align 8
  %14 = alloca ptr, align 8
  store ptr %0, ptr %5, align 8, !tbaa !7
  store ptr %1, ptr %6, align 8, !tbaa !29
  store ptr %2, ptr %7, align 8, !tbaa !29
  store i32 %3, ptr %8, align 4, !tbaa !3
  call void @llvm.lifetime.start.p0(i64 8, ptr %9) #11
  %15 = load ptr, ptr %5, align 8, !tbaa !7
  %16 = load ptr, ptr %6, align 8, !tbaa !29
  %17 = getelementptr inbounds nuw %struct.Part_One_t_, ptr %16, i32 0, i32 1
  %18 = load i32, ptr %17, align 4, !tbaa !31
  %19 = load ptr, ptr %7, align 8, !tbaa !29
  %20 = getelementptr inbounds nuw %struct.Part_One_t_, ptr %19, i32 0, i32 1
  %21 = load i32, ptr %20, align 4, !tbaa !31
  %22 = add nsw i32 %18, %21
  %23 = load i32, ptr %8, align 4, !tbaa !3
  %24 = call ptr @Part_ManFetchEntry(ptr noundef %15, i32 noundef %22, i32 noundef %23)
  store ptr %24, ptr %9, align 8, !tbaa !29
  call void @llvm.lifetime.start.p0(i64 8, ptr %10) #11
  %25 = load ptr, ptr %6, align 8, !tbaa !29
  %26 = getelementptr inbounds nuw %struct.Part_One_t_, ptr %25, i32 0, i32 3
  %27 = getelementptr inbounds [0 x i32], ptr %26, i64 0, i64 0
  store ptr %27, ptr %10, align 8, !tbaa !33
  call void @llvm.lifetime.start.p0(i64 8, ptr %11) #11
  %28 = load ptr, ptr %7, align 8, !tbaa !29
  %29 = getelementptr inbounds nuw %struct.Part_One_t_, ptr %28, i32 0, i32 3
  %30 = getelementptr inbounds [0 x i32], ptr %29, i64 0, i64 0
  store ptr %30, ptr %11, align 8, !tbaa !33
  call void @llvm.lifetime.start.p0(i64 8, ptr %12) #11
  %31 = load ptr, ptr %9, align 8, !tbaa !29
  %32 = getelementptr inbounds nuw %struct.Part_One_t_, ptr %31, i32 0, i32 3
  %33 = getelementptr inbounds [0 x i32], ptr %32, i64 0, i64 0
  store ptr %33, ptr %12, align 8, !tbaa !33
  call void @llvm.lifetime.start.p0(i64 8, ptr %13) #11
  %34 = load ptr, ptr %6, align 8, !tbaa !29
  %35 = getelementptr inbounds nuw %struct.Part_One_t_, ptr %34, i32 0, i32 3
  %36 = getelementptr inbounds [0 x i32], ptr %35, i64 0, i64 0
  %37 = load ptr, ptr %6, align 8, !tbaa !29
  %38 = getelementptr inbounds nuw %struct.Part_One_t_, ptr %37, i32 0, i32 1
  %39 = load i32, ptr %38, align 4, !tbaa !31
  %40 = sext i32 %39 to i64
  %41 = getelementptr inbounds i32, ptr %36, i64 %40
  store ptr %41, ptr %13, align 8, !tbaa !33
  call void @llvm.lifetime.start.p0(i64 8, ptr %14) #11
  %42 = load ptr, ptr %7, align 8, !tbaa !29
  %43 = getelementptr inbounds nuw %struct.Part_One_t_, ptr %42, i32 0, i32 3
  %44 = getelementptr inbounds [0 x i32], ptr %43, i64 0, i64 0
  %45 = load ptr, ptr %7, align 8, !tbaa !29
  %46 = getelementptr inbounds nuw %struct.Part_One_t_, ptr %45, i32 0, i32 1
  %47 = load i32, ptr %46, align 4, !tbaa !31
  %48 = sext i32 %47 to i64
  %49 = getelementptr inbounds i32, ptr %44, i64 %48
  store ptr %49, ptr %14, align 8, !tbaa !33
  br label %50

50:                                               ; preds = %93, %4
  %51 = load ptr, ptr %10, align 8, !tbaa !33
  %52 = load ptr, ptr %13, align 8, !tbaa !33
  %53 = icmp ult ptr %51, %52
  br i1 %53, label %54, label %58

54:                                               ; preds = %50
  %55 = load ptr, ptr %11, align 8, !tbaa !33
  %56 = load ptr, ptr %14, align 8, !tbaa !33
  %57 = icmp ult ptr %55, %56
  br label %58

58:                                               ; preds = %54, %50
  %59 = phi i1 [ false, %50 ], [ %57, %54 ]
  br i1 %59, label %60, label %94

60:                                               ; preds = %58
  %61 = load ptr, ptr %10, align 8, !tbaa !33
  %62 = load i32, ptr %61, align 4, !tbaa !3
  %63 = load ptr, ptr %11, align 8, !tbaa !33
  %64 = load i32, ptr %63, align 4, !tbaa !3
  %65 = icmp eq i32 %62, %64
  br i1 %65, label %66, label %74

66:                                               ; preds = %60
  %67 = load ptr, ptr %10, align 8, !tbaa !33
  %68 = getelementptr inbounds nuw i32, ptr %67, i32 1
  store ptr %68, ptr %10, align 8, !tbaa !33
  %69 = load i32, ptr %67, align 4, !tbaa !3
  %70 = load ptr, ptr %12, align 8, !tbaa !33
  %71 = getelementptr inbounds nuw i32, ptr %70, i32 1
  store ptr %71, ptr %12, align 8, !tbaa !33
  store i32 %69, ptr %70, align 4, !tbaa !3
  %72 = load ptr, ptr %11, align 8, !tbaa !33
  %73 = getelementptr inbounds nuw i32, ptr %72, i32 1
  store ptr %73, ptr %11, align 8, !tbaa !33
  br label %93

74:                                               ; preds = %60
  %75 = load ptr, ptr %10, align 8, !tbaa !33
  %76 = load i32, ptr %75, align 4, !tbaa !3
  %77 = load ptr, ptr %11, align 8, !tbaa !33
  %78 = load i32, ptr %77, align 4, !tbaa !3
  %79 = icmp slt i32 %76, %78
  br i1 %79, label %80, label %86

80:                                               ; preds = %74
  %81 = load ptr, ptr %10, align 8, !tbaa !33
  %82 = getelementptr inbounds nuw i32, ptr %81, i32 1
  store ptr %82, ptr %10, align 8, !tbaa !33
  %83 = load i32, ptr %81, align 4, !tbaa !3
  %84 = load ptr, ptr %12, align 8, !tbaa !33
  %85 = getelementptr inbounds nuw i32, ptr %84, i32 1
  store ptr %85, ptr %12, align 8, !tbaa !33
  store i32 %83, ptr %84, align 4, !tbaa !3
  br label %92

86:                                               ; preds = %74
  %87 = load ptr, ptr %11, align 8, !tbaa !33
  %88 = getelementptr inbounds nuw i32, ptr %87, i32 1
  store ptr %88, ptr %11, align 8, !tbaa !33
  %89 = load i32, ptr %87, align 4, !tbaa !3
  %90 = load ptr, ptr %12, align 8, !tbaa !33
  %91 = getelementptr inbounds nuw i32, ptr %90, i32 1
  store ptr %91, ptr %12, align 8, !tbaa !33
  store i32 %89, ptr %90, align 4, !tbaa !3
  br label %92

92:                                               ; preds = %86, %80
  br label %93

93:                                               ; preds = %92, %66
  br label %50, !llvm.loop !35

94:                                               ; preds = %58
  br label %95

95:                                               ; preds = %99, %94
  %96 = load ptr, ptr %10, align 8, !tbaa !33
  %97 = load ptr, ptr %13, align 8, !tbaa !33
  %98 = icmp ult ptr %96, %97
  br i1 %98, label %99, label %105

99:                                               ; preds = %95
  %100 = load ptr, ptr %10, align 8, !tbaa !33
  %101 = getelementptr inbounds nuw i32, ptr %100, i32 1
  store ptr %101, ptr %10, align 8, !tbaa !33
  %102 = load i32, ptr %100, align 4, !tbaa !3
  %103 = load ptr, ptr %12, align 8, !tbaa !33
  %104 = getelementptr inbounds nuw i32, ptr %103, i32 1
  store ptr %104, ptr %12, align 8, !tbaa !33
  store i32 %102, ptr %103, align 4, !tbaa !3
  br label %95, !llvm.loop !36

105:                                              ; preds = %95
  br label %106

106:                                              ; preds = %110, %105
  %107 = load ptr, ptr %11, align 8, !tbaa !33
  %108 = load ptr, ptr %14, align 8, !tbaa !33
  %109 = icmp ult ptr %107, %108
  br i1 %109, label %110, label %116

110:                                              ; preds = %106
  %111 = load ptr, ptr %11, align 8, !tbaa !33
  %112 = getelementptr inbounds nuw i32, ptr %111, i32 1
  store ptr %112, ptr %11, align 8, !tbaa !33
  %113 = load i32, ptr %111, align 4, !tbaa !3
  %114 = load ptr, ptr %12, align 8, !tbaa !33
  %115 = getelementptr inbounds nuw i32, ptr %114, i32 1
  store ptr %115, ptr %12, align 8, !tbaa !33
  store i32 %113, ptr %114, align 4, !tbaa !3
  br label %106, !llvm.loop !37

116:                                              ; preds = %106
  %117 = load ptr, ptr %12, align 8, !tbaa !33
  %118 = load ptr, ptr %9, align 8, !tbaa !29
  %119 = getelementptr inbounds nuw %struct.Part_One_t_, ptr %118, i32 0, i32 3
  %120 = getelementptr inbounds [0 x i32], ptr %119, i64 0, i64 0
  %121 = ptrtoint ptr %117 to i64
  %122 = ptrtoint ptr %120 to i64
  %123 = sub i64 %121, %122
  %124 = sdiv exact i64 %123, 4
  %125 = trunc i64 %124 to i32
  %126 = load ptr, ptr %9, align 8, !tbaa !29
  %127 = getelementptr inbounds nuw %struct.Part_One_t_, ptr %126, i32 0, i32 1
  store i32 %125, ptr %127, align 4, !tbaa !31
  %128 = load ptr, ptr %9, align 8, !tbaa !29
  call void @llvm.lifetime.end.p0(i64 8, ptr %14) #11
  call void @llvm.lifetime.end.p0(i64 8, ptr %13) #11
  call void @llvm.lifetime.end.p0(i64 8, ptr %12) #11
  call void @llvm.lifetime.end.p0(i64 8, ptr %11) #11
  call void @llvm.lifetime.end.p0(i64 8, ptr %10) #11
  call void @llvm.lifetime.end.p0(i64 8, ptr %9) #11
  ret ptr %128
}