; Function Attrs: nounwind uwtable
define noundef ptr @Part_ManMergeEntry(ptr noundef captures(none) %0, ptr noundef readonly %1, ptr noundef readonly %2, i32 noundef %3) local_unnamed_addr #4 {
  %5 = getelementptr inbounds nuw i8, ptr %1, i64 4
  %6 = load i32, ptr %5, align 4, !tbaa !25
  %7 = getelementptr inbounds nuw i8, ptr %2, i64 4
  %8 = load i32, ptr %7, align 4, !tbaa !25
  %9 = add nsw i32 %8, %6
  %10 = shl i32 %9, 2
  %11 = add i32 %10, 12
  %12 = tail call ptr @Part_ManFetch(ptr noundef %0, i32 noundef %11)
  store i32 %3, ptr %12, align 4, !tbaa !27
  %13 = getelementptr inbounds nuw i8, ptr %12, i64 4
  store i32 0, ptr %13, align 4, !tbaa !25
  %14 = getelementptr inbounds nuw i8, ptr %12, i64 8
  store i32 %9, ptr %14, align 4, !tbaa !28
  %.ptr = getelementptr inbounds nuw i8, ptr %1, i64 12
  %.ptr62 = getelementptr inbounds nuw i8, ptr %2, i64 12
  %15 = getelementptr inbounds nuw i8, ptr %12, i64 12
  %16 = load i32, ptr %5, align 4, !tbaa !25
  %17 = sext i32 %16 to i64
  %.idx = shl nsw i64 %17, 2
  %18 = getelementptr i8, ptr %1, i64 %.idx
  %.ptr60 = getelementptr i8, ptr %18, i64 12
  %19 = load i32, ptr %7, align 4, !tbaa !25
  %20 = sext i32 %19 to i64
  %.idx61 = shl nsw i64 %20, 2
  %21 = getelementptr i8, ptr %2, i64 %.idx61
  %.ptr63 = getelementptr i8, ptr %21, i64 12
  %22 = icmp sgt i32 %16, 0
  %23 = icmp sgt i32 %19, 0
  %24 = select i1 %22, i1 %23, i1 false
  br i1 %24, label %.lr.ph, label %.preheader46

.preheader46:                                     ; preds = %38, %4
  %.040.lcssa = phi ptr [ %15, %4 ], [ %.141, %38 ]
  %.037.lcssa = phi ptr [ %.ptr62, %4 ], [ %.138, %38 ]
  %.0.lcssa = phi ptr [ %.ptr, %4 ], [ %.1, %38 ]
  %25 = icmp ult ptr %.0.lcssa, %.ptr60
  br i1 %25, label %.lr.ph54, label %.preheader

.lr.ph:                                           ; preds = %4, %38
  %.049 = phi ptr [ %.1, %38 ], [ %.ptr, %4 ]
  %.03748 = phi ptr [ %.138, %38 ], [ %.ptr62, %4 ]
  %.04047 = phi ptr [ %.141, %38 ], [ %15, %4 ]
  %26 = load i32, ptr %.049, align 4, !tbaa !29
  %27 = load i32, ptr %.03748, align 4, !tbaa !29
  %28 = icmp eq i32 %26, %27
  br i1 %28, label %29, label %32

29:                                               ; preds = %.lr.ph
  %30 = getelementptr inbounds nuw i8, ptr %.049, i64 4
  store i32 %26, ptr %.04047, align 4, !tbaa !29
  %31 = getelementptr inbounds nuw i8, ptr %.03748, i64 4
  br label %38

32:                                               ; preds = %.lr.ph
  %33 = icmp slt i32 %26, %27
  br i1 %33, label %34, label %36

34:                                               ; preds = %32
  %35 = getelementptr inbounds nuw i8, ptr %.049, i64 4
  store i32 %26, ptr %.04047, align 4, !tbaa !29
  br label %38

36:                                               ; preds = %32
  %37 = getelementptr inbounds nuw i8, ptr %.03748, i64 4
  store i32 %27, ptr %.04047, align 4, !tbaa !29
  br label %38

38:                                               ; preds = %34, %36, %29
  %.138 = phi ptr [ %31, %29 ], [ %.03748, %34 ], [ %37, %36 ]
  %.1 = phi ptr [ %30, %29 ], [ %35, %34 ], [ %.049, %36 ]
  %.141 = getelementptr inbounds nuw i8, ptr %.04047, i64 4
  %39 = icmp ult ptr %.1, %.ptr60
  %40 = icmp ult ptr %.138, %.ptr63
  %41 = select i1 %39, i1 %40, i1 false
  br i1 %41, label %.lr.ph, label %.preheader46, !llvm.loop !30

.preheader:                                       ; preds = %.lr.ph54, %.preheader46
  %.242.lcssa = phi ptr [ %.040.lcssa, %.preheader46 ], [ %45, %.lr.ph54 ]
  %42 = icmp ult ptr %.037.lcssa, %.ptr63
  br i1 %42, label %.lr.ph58, label %._crit_edge

.lr.ph54:                                         ; preds = %.preheader46, %.lr.ph54
  %.253 = phi ptr [ %43, %.lr.ph54 ], [ %.0.lcssa, %.preheader46 ]
  %.24252 = phi ptr [ %45, %.lr.ph54 ], [ %.040.lcssa, %.preheader46 ]
  %43 = getelementptr inbounds nuw i8, ptr %.253, i64 4
  %44 = load i32, ptr %.253, align 4, !tbaa !29
  %45 = getelementptr inbounds nuw i8, ptr %.24252, i64 4
  store i32 %44, ptr %.24252, align 4, !tbaa !29
  %46 = icmp ult ptr %43, %.ptr60
  br i1 %46, label %.lr.ph54, label %.preheader, !llvm.loop !31

.lr.ph58:                                         ; preds = %.preheader, %.lr.ph58
  %.23957 = phi ptr [ %47, %.lr.ph58 ], [ %.037.lcssa, %.preheader ]
  %.356 = phi ptr [ %49, %.lr.ph58 ], [ %.242.lcssa, %.preheader ]
  %47 = getelementptr inbounds nuw i8, ptr %.23957, i64 4
  %48 = load i32, ptr %.23957, align 4, !tbaa !29
  %49 = getelementptr inbounds nuw i8, ptr %.356, i64 4
  store i32 %48, ptr %.356, align 4, !tbaa !29
  %50 = icmp ult ptr %47, %.ptr63
  br i1 %50, label %.lr.ph58, label %._crit_edge, !llvm.loop !32

._crit_edge:                                      ; preds = %.lr.ph58, %.preheader
  %.3.lcssa = phi ptr [ %.242.lcssa, %.preheader ], [ %49, %.lr.ph58 ]
  %51 = ptrtoint ptr %.3.lcssa to i64
  %52 = ptrtoint ptr %15 to i64
  %53 = sub i64 %51, %52
  %54 = lshr exact i64 %53, 2
  %55 = trunc i64 %54 to i32
  store i32 %55, ptr %13, align 4, !tbaa !25
  ret ptr %12
}